; Function Attrs: nounwind uwtable
define void @appendNodelist(ptr noundef captures(none) %0, i64 noundef %1, ptr noundef %2) local_unnamed_addr #0 {
  %4 = getelementptr inbounds nuw i8, ptr %0, i64 16
  %5 = load i64, ptr %4, align 8, !tbaa !3
  %6 = getelementptr inbounds nuw i8, ptr %0, i64 24
  %7 = load i64, ptr %6, align 8, !tbaa !10
  %8 = icmp eq i64 %5, %7
  br i1 %8, label %9, label %._crit_edge.i.i

._crit_edge.i.i:                                  ; preds = %3
  %.phi.trans.insert.i.i = getelementptr inbounds nuw i8, ptr %0, i64 8
  %.pre.i.i = load i64, ptr %.phi.trans.insert.i.i, align 8, !tbaa !11
  %.pre46.i.i = load ptr, ptr %0, align 8, !tbaa !12
  br label %nodelist_append.exit

9:                                                ; preds = %3
  %10 = icmp eq i64 %5, 0
  %11 = shl i64 %5, 1
  %spec.select.i.i = select i1 %10, i64 1, i64 %11
  %mul.ov.i.i = icmp ugt i64 %spec.select.i.i, 2305843009213693951
  br i1 %mul.ov.i.i, label %35, label %12

12:                                               ; preds = %9
  %13 = load ptr, ptr %0, align 8, !tbaa !12
  %14 = shl nuw i64 %spec.select.i.i, 3
  %15 = tail call ptr @realloc(ptr noundef %13, i64 noundef %14) #11
  %16 = icmp eq ptr %15, null
  br i1 %16, label %35, label %17

17:                                               ; preds = %12
  %18 = load i64, ptr %6, align 8, !tbaa !10
  %19 = getelementptr inbounds nuw ptr, ptr %15, i64 %18
  %20 = sub i64 %spec.select.i.i, %18
  %21 = shl i64 %20, 3
  tail call void @llvm.memset.p0.i64(ptr nonnull align 8 %19, i8 0, i64 %21, i1 false)
  %22 = getelementptr inbounds nuw i8, ptr %0, i64 8
  %23 = load i64, ptr %22, align 8, !tbaa !11
  %24 = load i64, ptr %4, align 8, !tbaa !3
  %25 = add i64 %24, %23
  %26 = icmp ugt i64 %25, %18
  br i1 %26, label %27, label %33

27:                                               ; preds = %17
  %28 = sub i64 %18, %23
  %29 = sub i64 %spec.select.i.i, %28
  %30 = getelementptr inbounds nuw ptr, ptr %15, i64 %29
  %31 = getelementptr inbounds nuw ptr, ptr %15, i64 %23
  %32 = shl i64 %28, 3
  tail call void @llvm.memmove.p0.p0.i64(ptr nonnull align 8 %30, ptr nonnull align 8 %31, i64 %32, i1 false)
  store i64 %29, ptr %22, align 8, !tbaa !11
  br label %33

33:                                               ; preds = %27, %17
  %34 = phi i64 [ %23, %17 ], [ %29, %27 ]
  store ptr %15, ptr %0, align 8, !tbaa !12
  store i64 %spec.select.i.i, ptr %6, align 8, !tbaa !10
  br label %nodelist_append.exit

35:                                               ; preds = %12, %9
  %.2.i.ph.i = phi i32 [ 34, %9 ], [ 12, %12 ]
  %36 = load ptr, ptr @stderr, align 8, !tbaa !13
  %37 = tail call ptr @strerror(i32 noundef %.2.i.ph.i) #12
  %38 = tail call i32 (ptr, ptr, ...) @fprintf(ptr noundef %36, ptr noundef nonnull @.str, ptr noundef %37) #13
  tail call fastcc void @graphviz_exit() #14
  unreachable

nodelist_append.exit:                             ; preds = %._crit_edge.i.i, %33
  %39 = phi ptr [ %.pre46.i.i, %._crit_edge.i.i ], [ %15, %33 ]
  %40 = phi i64 [ %7, %._crit_edge.i.i ], [ %spec.select.i.i, %33 ]
  %41 = phi i64 [ %5, %._crit_edge.i.i ], [ %24, %33 ]
  %.promoted.i = phi i64 [ %.pre.i.i, %._crit_edge.i.i ], [ %34, %33 ]
  %42 = add i64 %.promoted.i, %41
  %43 = urem i64 %42, %40
  %44 = getelementptr inbounds nuw ptr, ptr %39, i64 %43
  store ptr null, ptr %44, align 8, !tbaa !15
  %45 = add i64 %41, 1
  store i64 %45, ptr %4, align 8, !tbaa !3
  %46 = getelementptr inbounds nuw i8, ptr %0, i64 8
  %.not16.i = icmp eq i64 %.promoted.i, 0
  br i1 %.not16.i, label %nodelist_sync.exit, label %.lr.ph.i

.lr.ph.i:                                         ; preds = %nodelist_append.exit, %._crit_edge.i
  %47 = phi i64 [ %49, %._crit_edge.i ], [ %.promoted.i, %nodelist_append.exit ]
  %48 = load ptr, ptr %39, align 8, !tbaa !15
  br label %50

._crit_edge.i:                                    ; preds = %50
  %49 = add i64 %47, -1
  %.not.i = icmp eq i64 %49, 0
  br i1 %.not.i, label %._crit_edge19.i, label %.lr.ph.i, !llvm.loop !17

50:                                               ; preds = %50, %.lr.ph.i
  %.015.i = phi ptr [ %48, %.lr.ph.i ], [ %52, %50 ]
  %.011.in14.i = phi i64 [ %40, %.lr.ph.i ], [ %.011.i, %50 ]
  %.011.i = add i64 %.011.in14.i, -1
  %51 = getelementptr inbounds nuw ptr, ptr %39, i64 %.011.i
  %52 = load ptr, ptr %51, align 8, !tbaa !15
  store ptr %.015.i, ptr %51, align 8, !tbaa !15
  %.not12.i = icmp eq i64 %.011.i, 0
  br i1 %.not12.i, label %._crit_edge.i, label %50, !llvm.loop !19

._crit_edge19.i:                                  ; preds = %._crit_edge.i
  store i64 0, ptr %46, align 8, !tbaa !11
  br label %nodelist_sync.exit

nodelist_sync.exit:                               ; preds = %nodelist_append.exit, %._crit_edge19.i
  %53 = sub i64 %41, %1
  %54 = shl i64 %53, 3
  %.not = icmp eq i64 %54, 0
  br i1 %.not, label %61, label %55

55:                                               ; preds = %nodelist_sync.exit
  %56 = add i64 %1, 1
  %57 = urem i64 %56, %40
  %58 = getelementptr inbounds nuw ptr, ptr %39, i64 %57
  %59 = urem i64 %1, %40
  %60 = getelementptr inbounds nuw ptr, ptr %39, i64 %59
  tail call void @llvm.memmove.p0.p0.i64(ptr align 8 %58, ptr align 8 %60, i64 %54, i1 false)
  %.pre = load ptr, ptr %0, align 8, !tbaa !12
  %.pre12 = load i64, ptr %46, align 8, !tbaa !11
  %.pre13 = load i64, ptr %6, align 8, !tbaa !10
  br label %61

61:                                               ; preds = %55, %nodelist_sync.exit
  %62 = phi i64 [ %.pre13, %55 ], [ %40, %nodelist_sync.exit ]
  %63 = phi i64 [ %.pre12, %55 ], [ 0, %nodelist_sync.exit ]
  %64 = phi ptr [ %.pre, %55 ], [ %39, %nodelist_sync.exit ]
  %65 = add i64 %63, %1
  %66 = urem i64 %65, %62
  %67 = getelementptr inbounds nuw ptr, ptr %64, i64 %66
  store ptr %2, ptr %67, align 8, !tbaa !15
  ret void
}